; Function Attrs: nofree norecurse nosync nounwind memory(readwrite, inaccessiblemem: none) uwtable
define hidden void @ThreeByteBgrToIntBgrScaleConvert(ptr noundef %0, ptr noundef %1, i32 noundef %2, i32 noundef %3, i32 noundef %4, i32 noundef %5, i32 noundef %6, i32 noundef %7, i32 noundef %8, ptr nocapture noundef readonly %9, ptr nocapture noundef readonly %10, ptr nocapture readnone %11, ptr nocapture readnone %12) #1 {
  %14 = getelementptr inbounds i8, ptr %9, i64 32
  %15 = load i32, ptr %14, align 8
  %16 = getelementptr inbounds i8, ptr %10, i64 32
  %17 = load i32, ptr %16, align 8
  %18 = shl i32 %2, 2
  %19 = sub i32 %17, %18
  %20 = sext i32 %19 to i64
  %21 = ptrtoint ptr %0 to i64
  %22 = sext i32 %15 to i64
  br label %23

23:                                               ; preds = %51, %13
  %.032 = phi ptr [ %1, %13 ], [ %53, %51 ]
  %.031 = phi i32 [ %5, %13 ], [ %54, %51 ]
  %.0 = phi i32 [ %3, %13 ], [ %55, %51 ]
  %24 = ashr i32 %.031, %8
  %25 = sext i32 %24 to i64
  %26 = mul nsw i64 %25, %22
  %27 = add nsw i64 %26, %21
  %28 = inttoptr i64 %27 to ptr
  br label %29

29:                                               ; preds = %29, %23
  %.034 = phi i32 [ %2, %23 ], [ %50, %29 ]
  %.033 = phi i32 [ %4, %23 ], [ %49, %29 ]
  %.1 = phi ptr [ %.032, %23 ], [ %48, %29 ]
  %30 = ashr i32 %.033, %8
  %31 = mul nsw i32 %30, 3
  %32 = sext i32 %31 to i64
  %33 = getelementptr inbounds i8, ptr %28, i64 %32
  %34 = load i8, ptr %33, align 1
  %35 = zext i8 %34 to i32
  %36 = getelementptr i8, ptr %33, i64 1
  %37 = load i8, ptr %36, align 1
  %38 = zext i8 %37 to i32
  %39 = getelementptr i8, ptr %33, i64 2
  %40 = load i8, ptr %39, align 1
  %41 = zext i8 %40 to i32
  %42 = shl nuw nsw i32 %35, 16
  %43 = shl nuw nsw i32 %38, 8
  %44 = or disjoint i32 %43, %42
  %45 = or disjoint i32 %44, %41
  store i32 %45, ptr %.1, align 4
  %46 = ptrtoint ptr %.1 to i64
  %47 = add nsw i64 %46, 4
  %48 = inttoptr i64 %47 to ptr
  %49 = add nsw i32 %.033, %6
  %50 = add i32 %.034, -1
  %.not = icmp eq i32 %50, 0
  br i1 %.not, label %51, label %29, !llvm.loop !20

51:                                               ; preds = %29
  %52 = add nsw i64 %47, %20
  %53 = inttoptr i64 %52 to ptr
  %54 = add nsw i32 %.031, %7
  %55 = add i32 %.0, -1
  %.not36 = icmp eq i32 %55, 0
  br i1 %.not36, label %56, label %23, !llvm.loop !21

56:                                               ; preds = %51
  ret void
}